target datalayout = "e-m:e-p270:32:32-p271:32:32-p272:64:64-i64:64-i128:128-f80:128-n8:16:32:64-S128"
target triple = "x86_64-pc-linux-gnu"

%struct.SiprContext = type { i32, float, [16 x float], [452 x float], [8 x i8], [256 x float], [10 x float], float, [4 x float], [2 x float], [153 x float], float, float, [153 x float], [250 x float], i32, [17 x float], [2 x [17 x float]], [2 x ptr], [16 x float], [16 x float], [16 x double], ptr, [8 x i8] }

; Function Attrs: cold nounwind optsize uwtable
define void @ff_sipr_init_16k(ptr noundef %0) #6 {
  %2 = alloca ptr, align 8
  %3 = alloca i32, align 4
  store ptr %0, ptr %2, align 8, !tbaa !4
  call void @llvm.lifetime.start.p0(i64 4, ptr %3) #8
  store i32 0, ptr %3, align 4, !tbaa !13
  br label %4

4:                                                ; preds = %19, %1
  %5 = load i32, ptr %3, align 4, !tbaa !13
  %6 = icmp slt i32 %5, 16
  br i1 %6, label %7, label %22

7:                                                ; preds = %4
  %8 = load i32, ptr %3, align 4, !tbaa !13
  %9 = add nsw i32 %8, 1
  %10 = sitofp i32 %9 to double
  %11 = fmul nsz double %10, 0x400921FB54442D18
  %12 = fdiv nsz double %11, 1.700000e+01
  %13 = call nsz double @llvm.cos.f64(double %12)
  %14 = load ptr, ptr %2, align 8, !tbaa !4
  %15 = getelementptr inbounds nuw %struct.SiprContext, ptr %14, i32 0, i32 21
  %16 = load i32, ptr %3, align 4, !tbaa !13
  %17 = sext i32 %16 to i64
  %18 = getelementptr inbounds [16 x double], ptr %15, i64 0, i64 %17
  store double %13, ptr %18, align 8, !tbaa !31
  br label %19

19:                                               ; preds = %7
  %20 = load i32, ptr %3, align 4, !tbaa !13
  %21 = add nsw i32 %20, 1
  store i32 %21, ptr %3, align 4, !tbaa !13
  br label %4, !llvm.loop !40

22:                                               ; preds = %4
  %23 = load ptr, ptr %2, align 8, !tbaa !4
  %24 = getelementptr inbounds nuw %struct.SiprContext, ptr %23, i32 0, i32 17
  %25 = getelementptr inbounds [2 x [17 x float]], ptr %24, i64 0, i64 0
  %26 = getelementptr inbounds [17 x float], ptr %25, i64 0, i64 0
  %27 = load ptr, ptr %2, align 8, !tbaa !4
  %28 = getelementptr inbounds nuw %struct.SiprContext, ptr %27, i32 0, i32 18
  %29 = getelementptr inbounds [2 x ptr], ptr %28, i64 0, i64 0
  store ptr %26, ptr %29, align 16, !tbaa !11
  %30 = load ptr, ptr %2, align 8, !tbaa !4
  %31 = getelementptr inbounds nuw %struct.SiprContext, ptr %30, i32 0, i32 17
  %32 = getelementptr inbounds [2 x [17 x float]], ptr %31, i64 0, i64 1
  %33 = getelementptr inbounds [17 x float], ptr %32, i64 0, i64 0
  %34 = load ptr, ptr %2, align 8, !tbaa !4
  %35 = getelementptr inbounds nuw %struct.SiprContext, ptr %34, i32 0, i32 18
  %36 = getelementptr inbounds [2 x ptr], ptr %35, i64 0, i64 1
  store ptr %33, ptr %36, align 8, !tbaa !11
  %37 = load ptr, ptr %2, align 8, !tbaa !4
  %38 = getelementptr inbounds nuw %struct.SiprContext, ptr %37, i32 0, i32 15
  store i32 180, ptr %38, align 4, !tbaa !17
  call void @llvm.lifetime.end.p0(i64 4, ptr %3) #8
  ret void
}