; Function Attrs: cold nofree norecurse nosync nounwind optsize memory(argmem: write) uwtable
define void @ff_sipr_init_16k(ptr noundef %0) local_unnamed_addr #6 {
  %2 = getelementptr inbounds nuw i8, ptr %0, i64 5568
  br label %3

3:                                                ; preds = %1, %3
  %indvars.iv = phi i64 [ 0, %1 ], [ %indvars.iv.next, %3 ]
  %indvars.iv.next = add nuw nsw i64 %indvars.iv, 1
  %4 = trunc nuw nsw i64 %indvars.iv.next to i32
  %5 = uitofp nneg i32 %4 to double
  %6 = fmul nsz double %5, 0x400921FB54442D18
  %7 = fdiv nsz double %6, 1.700000e+01
  %8 = tail call nsz double @llvm.cos.f64(double %7)
  %9 = getelementptr inbounds nuw [16 x double], ptr %2, i64 0, i64 %indvars.iv
  store double %8, ptr %9, align 8, !tbaa !18
  %exitcond.not = icmp eq i64 %indvars.iv.next, 16
  br i1 %exitcond.not, label %10, label %3, !llvm.loop !30

10:                                               ; preds = %3
  %11 = getelementptr inbounds nuw i8, ptr %0, i64 5284
  %12 = getelementptr inbounds nuw i8, ptr %0, i64 5424
  store ptr %11, ptr %12, align 16, !tbaa !9
  %13 = getelementptr inbounds nuw i8, ptr %0, i64 5352
  %14 = getelementptr inbounds nuw i8, ptr %0, i64 5432
  store ptr %13, ptr %14, align 8, !tbaa !9
  %15 = getelementptr inbounds nuw i8, ptr %0, i64 5212
  store i32 180, ptr %15, align 4, !tbaa !22
  ret void
}